target datalayout = "e-m:e-p270:32:32-p271:32:32-p272:64:64-i64:64-i128:128-f80:128-n8:16:32:64-S128"
target triple = "x86_64-unknown-linux-gnu"

%class.btAlignedObjectArray.0 = type <{ %class.btAlignedAllocator.1, [3 x i8], i32, i32, [4 x i8], ptr, i8, [7 x i8] }>
%class.btAlignedAllocator.1 = type { i8 }
%class.btDeformableBackwardEulerObjective = type { ptr, float, [4 x i8], %class.btAlignedObjectArray.8, ptr, ptr, %class.btDeformableContactProjection, ptr, %class.btAlignedObjectArray.48, i8, ptr, ptr }
%class.btAlignedObjectArray.8 = type <{ %class.btAlignedAllocator.9, [3 x i8], i32, i32, [4 x i8], ptr, i8, [7 x i8] }>
%class.btAlignedAllocator.9 = type { i8 }
%class.btDeformableContactProjection = type <{ ptr, ptr, %class.btAlignedObjectArray.12, %class.btHashMap, %class.btAlignedObjectArray.24, %class.btAlignedObjectArray.28, %class.btAlignedObjectArray.32, %class.btAlignedObjectArray.36, %class.btAlignedObjectArray.40, %class.btAlignedObjectArray.44, i8, [7 x i8] }>
%class.btAlignedObjectArray.12 = type <{ %class.btAlignedAllocator.13, [3 x i8], i32, i32, [4 x i8], ptr, i8, [7 x i8] }>
%class.btAlignedAllocator.13 = type { i8 }
%class.btHashMap = type { %class.btAlignedObjectArray.0, %class.btAlignedObjectArray.0, %class.btAlignedObjectArray.16, %class.btAlignedObjectArray.20 }
%class.btAlignedObjectArray.16 = type <{ %class.btAlignedAllocator.17, [3 x i8], i32, i32, [4 x i8], ptr, i8, [7 x i8] }>
%class.btAlignedAllocator.17 = type { i8 }
%class.btAlignedObjectArray.20 = type <{ %class.btAlignedAllocator.21, [3 x i8], i32, i32, [4 x i8], ptr, i8, [7 x i8] }>
%class.btAlignedAllocator.21 = type { i8 }
%class.btAlignedObjectArray.24 = type <{ %class.btAlignedAllocator.25, [3 x i8], i32, i32, [4 x i8], ptr, i8, [7 x i8] }>
%class.btAlignedAllocator.25 = type { i8 }
%class.btAlignedObjectArray.28 = type <{ %class.btAlignedAllocator.29, [3 x i8], i32, i32, [4 x i8], ptr, i8, [7 x i8] }>
%class.btAlignedAllocator.29 = type { i8 }
%class.btAlignedObjectArray.32 = type <{ %class.btAlignedAllocator.33, [3 x i8], i32, i32, [4 x i8], ptr, i8, [7 x i8] }>
%class.btAlignedAllocator.33 = type { i8 }
%class.btAlignedObjectArray.36 = type <{ %class.btAlignedAllocator.37, [3 x i8], i32, i32, [4 x i8], ptr, i8, [7 x i8] }>
%class.btAlignedAllocator.37 = type { i8 }
%class.btAlignedObjectArray.40 = type <{ %class.btAlignedAllocator.41, [3 x i8], i32, i32, [4 x i8], ptr, i8, [7 x i8] }>
%class.btAlignedAllocator.41 = type { i8 }
%class.btAlignedObjectArray.44 = type <{ %class.btAlignedAllocator.45, [3 x i8], i32, i32, [4 x i8], ptr, i8, [7 x i8] }>
%class.btAlignedAllocator.45 = type { i8 }
%class.btAlignedObjectArray.48 = type <{ %class.btAlignedAllocator.49, [3 x i8], i32, i32, [4 x i8], ptr, i8, [7 x i8] }>
%class.btAlignedAllocator.49 = type { i8 }
%class.CProfileSample = type { i8 }

@.str.8 = private unnamed_addr constant [16 x i8] c"computeResidual\00", align 1

; Function Attrs: mustprogress nounwind uwtable
define linkonce_odr dso_local noundef nonnull align 8 dereferenceable(8) ptr @_ZN20btAlignedObjectArrayIP27btDeformableLagrangianForceEixEi(ptr noundef nonnull align 8 dereferenceable(25) %this, i32 noundef %n) #1 comdat align 2 {
entry:
  %this.addr = alloca ptr, align 8
  %n.addr = alloca i32, align 4
  store ptr %this, ptr %this.addr, align 8
  store i32 %n, ptr %n.addr, align 4
  %this1 = load ptr, ptr %this.addr, align 8
  %m_data = getelementptr inbounds %class.btAlignedObjectArray.8, ptr %this1, i32 0, i32 5
  %0 = load ptr, ptr %m_data, align 8
  %1 = load i32, ptr %n.addr, align 4
  %idxprom = sext i32 %1 to i64
  %arrayidx = getelementptr inbounds ptr, ptr %0, i64 %idxprom
  ret ptr %arrayidx
}

; Function Attrs: mustprogress nounwind uwtable
define linkonce_odr dso_local noundef i32 @_ZNK20btAlignedObjectArrayIP27btDeformableLagrangianForceE4sizeEv(ptr noundef nonnull align 8 dereferenceable(25) %this) #1 comdat align 2 {
entry:
  %this.addr = alloca ptr, align 8
  store ptr %this, ptr %this.addr, align 8
  %this1 = load ptr, ptr %this.addr, align 8
  %m_size = getelementptr inbounds %class.btAlignedObjectArray.8, ptr %this1, i32 0, i32 2
  %0 = load i32, ptr %m_size, align 4
  ret i32 %0
}

; Function Attrs: mustprogress uwtable
define dso_local void @_ZN34btDeformableBackwardEulerObjective15computeResidualEfR20btAlignedObjectArrayI9btVector3E(ptr noundef nonnull align 8 dereferenceable(504) %this, float noundef %dt, ptr noundef nonnull align 8 dereferenceable(25) %residual) #5 align 2 personality ptr @__gxx_personality_v0 {
entry:
  %this.addr = alloca ptr, align 8
  %dt.addr = alloca float, align 4
  %residual.addr = alloca ptr, align 8
  %__profile = alloca %class.CProfileSample, align 1
  %i = alloca i32, align 4
  %exn.slot = alloca ptr, align 8
  %ehselector.slot = alloca i32, align 4
  store ptr %this, ptr %this.addr, align 8
  store float %dt, ptr %dt.addr, align 4
  store ptr %residual, ptr %residual.addr, align 8
  %this1 = load ptr, ptr %this.addr, align 8
  call void @_ZN14CProfileSampleC1EPKc(ptr noundef nonnull align 1 dereferenceable(1) %__profile, ptr noundef @.str.8)
  store i32 0, ptr %i, align 4
  br label %for.cond

for.cond:                                         ; preds = %for.inc, %entry
  %0 = load i32, ptr %i, align 4
  %m_lf = getelementptr inbounds %class.btDeformableBackwardEulerObjective, ptr %this1, i32 0, i32 3
  %call = invoke noundef i32 @_ZNK20btAlignedObjectArrayIP27btDeformableLagrangianForceE4sizeEv(ptr noundef nonnull align 8 dereferenceable(25) %m_lf)
          to label %invoke.cont unwind label %lpad

invoke.cont:                                      ; preds = %for.cond
  %cmp = icmp slt i32 %0, %call
  br i1 %cmp, label %for.body, label %for.end

for.body:                                         ; preds = %invoke.cont
  %m_implicit = getelementptr inbounds %class.btDeformableBackwardEulerObjective, ptr %this1, i32 0, i32 9
  %1 = load i8, ptr %m_implicit, align 8
  %tobool = trunc i8 %1 to i1
  br i1 %tobool, label %if.then, label %lor.lhs.false

lor.lhs.false:                                    ; preds = %for.body
  %m_lf2 = getelementptr inbounds %class.btDeformableBackwardEulerObjective, ptr %this1, i32 0, i32 3
  %2 = load i32, ptr %i, align 4
  %call4 = invoke noundef nonnull align 8 dereferenceable(8) ptr @_ZN20btAlignedObjectArrayIP27btDeformableLagrangianForceEixEi(ptr noundef nonnull align 8 dereferenceable(25) %m_lf2, i32 noundef %2)
          to label %invoke.cont3 unwind label %lpad

invoke.cont3:                                     ; preds = %lor.lhs.false
  %3 = load ptr, ptr %call4, align 8
  %vtable = load ptr, ptr %3, align 8
  %vfn = getelementptr inbounds ptr, ptr %vtable, i64 9
  %4 = load ptr, ptr %vfn, align 8
  %call6 = invoke noundef i32 %4(ptr noundef nonnull align 8 dereferenceable(48) %3)
          to label %invoke.cont5 unwind label %lpad

invoke.cont5:                                     ; preds = %invoke.cont3
  %cmp7 = icmp eq i32 %call6, 6
  br i1 %cmp7, label %if.then, label %if.else

if.then:                                          ; preds = %invoke.cont5, %for.body
  %m_lf8 = getelementptr inbounds %class.btDeformableBackwardEulerObjective, ptr %this1, i32 0, i32 3
  %5 = load i32, ptr %i, align 4
  %call10 = invoke noundef nonnull align 8 dereferenceable(8) ptr @_ZN20btAlignedObjectArrayIP27btDeformableLagrangianForceEixEi(ptr noundef nonnull align 8 dereferenceable(25) %m_lf8, i32 noundef %5)
          to label %invoke.cont9 unwind label %lpad

invoke.cont9:                                     ; preds = %if.then
  %6 = load ptr, ptr %call10, align 8
  %7 = load float, ptr %dt.addr, align 4
  %8 = load ptr, ptr %residual.addr, align 8
  %vtable11 = load ptr, ptr %6, align 8
  %vfn12 = getelementptr inbounds ptr, ptr %vtable11, i64 2
  %9 = load ptr, ptr %vfn12, align 8
  invoke void %9(ptr noundef nonnull align 8 dereferenceable(48) %6, float noundef %7, ptr noundef nonnull align 8 dereferenceable(25) %8)
          to label %invoke.cont13 unwind label %lpad

invoke.cont13:                                    ; preds = %invoke.cont9
  br label %if.end

lpad:                                             ; preds = %invoke.cont15, %if.else, %invoke.cont9, %if.then, %invoke.cont3, %lor.lhs.false, %for.cond
  %10 = landingpad { ptr, i32 }
          cleanup
  %11 = extractvalue { ptr, i32 } %10, 0
  store ptr %11, ptr %exn.slot, align 8
  %12 = extractvalue { ptr, i32 } %10, 1
  store i32 %12, ptr %ehselector.slot, align 4
  call void @_ZN14CProfileSampleD1Ev(ptr noundef nonnull align 1 dereferenceable(1) %__profile) #4
  br label %eh.resume

if.else:                                          ; preds = %invoke.cont5
  %m_lf14 = getelementptr inbounds %class.btDeformableBackwardEulerObjective, ptr %this1, i32 0, i32 3
  %13 = load i32, ptr %i, align 4
  %call16 = invoke noundef nonnull align 8 dereferenceable(8) ptr @_ZN20btAlignedObjectArrayIP27btDeformableLagrangianForceEixEi(ptr noundef nonnull align 8 dereferenceable(25) %m_lf14, i32 noundef %13)
          to label %invoke.cont15 unwind label %lpad

invoke.cont15:                                    ; preds = %if.else
  %14 = load ptr, ptr %call16, align 8
  %15 = load float, ptr %dt.addr, align 4
  %16 = load ptr, ptr %residual.addr, align 8
  %vtable17 = load ptr, ptr %14, align 8
  %vfn18 = getelementptr inbounds ptr, ptr %vtable17, i64 7
  %17 = load ptr, ptr %vfn18, align 8
  invoke void %17(ptr noundef nonnull align 8 dereferenceable(48) %14, float noundef %15, ptr noundef nonnull align 8 dereferenceable(25) %16)
          to label %invoke.cont19 unwind label %lpad

invoke.cont19:                                    ; preds = %invoke.cont15
  br label %if.end

if.end:                                           ; preds = %invoke.cont19, %invoke.cont13
  br label %for.inc

for.inc:                                          ; preds = %if.end
  %18 = load i32, ptr %i, align 4
  %inc = add nsw i32 %18, 1
  store i32 %inc, ptr %i, align 4
  br label %for.cond, !llvm.loop !38

for.end:                                          ; preds = %invoke.cont
  call void @_ZN14CProfileSampleD1Ev(ptr noundef nonnull align 1 dereferenceable(1) %__profile) #4
  ret void

eh.resume:                                        ; preds = %lpad
  %exn = load ptr, ptr %exn.slot, align 8
  %sel = load i32, ptr %ehselector.slot, align 4
  %lpad.val = insertvalue { ptr, i32 } poison, ptr %exn, 0
  %lpad.val20 = insertvalue { ptr, i32 } %lpad.val, i32 %sel, 1
  resume { ptr, i32 } %lpad.val20
}