; Function Attrs: mustprogress uwtable
define dso_local void @_ZN34btDeformableBackwardEulerObjective15computeResidualEfR20btAlignedObjectArrayI9btVector3E(ptr nocapture noundef nonnull readonly align 8 dereferenceable(504) %this, float noundef %dt, ptr noundef nonnull align 8 dereferenceable(25) %residual) local_unnamed_addr #3 align 2 personality ptr @__gxx_personality_v0 {
entry:
  %__profile = alloca %class.CProfileSample, align 1
  call void @_ZN14CProfileSampleC1EPKc(ptr noundef nonnull align 1 dereferenceable(1) %__profile, ptr noundef nonnull @.str.8)
  %m_size.i = getelementptr inbounds i8, ptr %this, i64 20
  %0 = load i32, ptr %m_size.i, align 4
  %cmp13 = icmp sgt i32 %0, 0
  br i1 %cmp13, label %for.body.lr.ph, label %for.end

for.body.lr.ph:                                   ; preds = %entry
  %m_implicit = getelementptr inbounds i8, ptr %this, i64 480
  %m_data.i = getelementptr inbounds i8, ptr %this, i64 32
  br label %for.body

for.body:                                         ; preds = %for.body.lr.ph, %for.inc
  %indvars.iv = phi i64 [ 0, %for.body.lr.ph ], [ %indvars.iv.next, %for.inc ]
  %1 = load i8, ptr %m_implicit, align 8
  %2 = and i8 %1, 1
  %tobool.not = icmp eq i8 %2, 0
  br i1 %tobool.not, label %lor.lhs.false, label %if.else.invoke

lor.lhs.false:                                    ; preds = %for.body
  %3 = load ptr, ptr %m_data.i, align 8
  %arrayidx.i = getelementptr inbounds ptr, ptr %3, i64 %indvars.iv
  %4 = load ptr, ptr %arrayidx.i, align 8
  %vtable = load ptr, ptr %4, align 8
  %vfn = getelementptr inbounds i8, ptr %vtable, i64 72
  %5 = load ptr, ptr %vfn, align 8
  %call6 = invoke noundef i32 %5(ptr noundef nonnull align 8 dereferenceable(48) %4)
          to label %invoke.cont5 unwind label %lpad

invoke.cont5:                                     ; preds = %lor.lhs.false
  %cmp7 = icmp eq i32 %call6, 6
  %spec.select = select i1 %cmp7, i64 16, i64 56
  br label %if.else.invoke

lpad:                                             ; preds = %if.else.invoke, %lor.lhs.false
  %6 = landingpad { ptr, i32 }
          cleanup
  call void @_ZN14CProfileSampleD1Ev(ptr noundef nonnull align 1 dereferenceable(1) %__profile) #20
  resume { ptr, i32 } %6

if.else.invoke:                                   ; preds = %invoke.cont5, %for.body
  %.sink = phi i64 [ 16, %for.body ], [ %spec.select, %invoke.cont5 ]
  %.pn = load ptr, ptr %m_data.i, align 8
  %.sink16.in = getelementptr inbounds ptr, ptr %.pn, i64 %indvars.iv
  %.sink16 = load ptr, ptr %.sink16.in, align 8
  %vtable11 = load ptr, ptr %.sink16, align 8
  %vfn12 = getelementptr inbounds i8, ptr %vtable11, i64 %.sink
  %7 = load ptr, ptr %vfn12, align 8
  invoke void %7(ptr noundef nonnull align 8 dereferenceable(48) %.sink16, float noundef %dt, ptr noundef nonnull align 8 dereferenceable(25) %residual)
          to label %for.inc unwind label %lpad

for.inc:                                          ; preds = %if.else.invoke
  %indvars.iv.next = add nuw nsw i64 %indvars.iv, 1
  %8 = load i32, ptr %m_size.i, align 4
  %9 = sext i32 %8 to i64
  %cmp = icmp slt i64 %indvars.iv.next, %9
  br i1 %cmp, label %for.body, label %for.end, !llvm.loop !43

for.end:                                          ; preds = %for.inc, %entry
  call void @_ZN14CProfileSampleD1Ev(ptr noundef nonnull align 1 dereferenceable(1) %__profile) #20
  ret void
}